target datalayout = "e-m:e-p270:32:32-p271:32:32-p272:64:64-i64:64-i128:128-f80:128-n8:16:32:64-S128"
target triple = "x86_64-pc-linux-gnu"

%struct.tm = type { i32, i32, i32, i32, i32, i32, i32, i32, i32, i64, ptr }

@.str.15 = private unnamed_addr constant [5 x i8] c"year\00", align 1
@.str.16 = private unnamed_addr constant [6 x i8] c"month\00", align 1
@.str.17 = private unnamed_addr constant [4 x i8] c"day\00", align 1
@.str.18 = private unnamed_addr constant [5 x i8] c"hour\00", align 1
@.str.19 = private unnamed_addr constant [4 x i8] c"min\00", align 1
@.str.20 = private unnamed_addr constant [4 x i8] c"sec\00", align 1
@.str.23 = private unnamed_addr constant [6 x i8] c"isdst\00", align 1
@.str.31 = private unnamed_addr constant [55 x i8] c"time result cannot be represented in this installation\00", align 1

; Function Attrs: nounwind uwtable
define internal i32 @getboolfield(ptr noundef %0, ptr noundef %1) #0 {
  %3 = alloca ptr, align 8
  %4 = alloca ptr, align 8
  %5 = alloca i32, align 4
  store ptr %0, ptr %3, align 8, !tbaa !4
  store ptr %1, ptr %4, align 8, !tbaa !9
  call void @llvm.lifetime.start.p0(i64 4, ptr %5) #9
  %6 = load ptr, ptr %3, align 8, !tbaa !4
  %7 = load ptr, ptr %4, align 8, !tbaa !9
  %8 = call i32 @lua_getfield(ptr noundef %6, i32 noundef -1, ptr noundef %7)
  %9 = icmp eq i32 %8, 0
  br i1 %9, label %10, label %11

10:                                               ; preds = %2
  br label %14

11:                                               ; preds = %2
  %12 = load ptr, ptr %3, align 8, !tbaa !4
  %13 = call i32 @lua_toboolean(ptr noundef %12, i32 noundef -1)
  br label %14

14:                                               ; preds = %11, %10
  %15 = phi i32 [ -1, %10 ], [ %13, %11 ]
  store i32 %15, ptr %5, align 4, !tbaa !20
  %16 = load ptr, ptr %3, align 8, !tbaa !4
  call void @lua_settop(ptr noundef %16, i32 noundef -2)
  %17 = load i32, ptr %5, align 4, !tbaa !20
  call void @llvm.lifetime.end.p0(i64 4, ptr %5) #9
  ret i32 %17
}

; Function Attrs: nounwind uwtable
define internal i32 @os_time(ptr noundef %0) #0 {
  %2 = alloca i32, align 4
  %3 = alloca ptr, align 8
  %4 = alloca i64, align 8
  %5 = alloca %struct.tm, align 8
  %6 = alloca i32, align 4
  store ptr %0, ptr %3, align 8, !tbaa !4
  call void @llvm.lifetime.start.p0(i64 8, ptr %4) #9
  %7 = load ptr, ptr %3, align 8, !tbaa !4
  %8 = call i32 @lua_type(ptr noundef %7, i32 noundef 1)
  %9 = icmp sle i32 %8, 0
  br i1 %9, label %10, label %12

10:                                               ; preds = %1
  %11 = call i64 @time(ptr noundef null) #9
  store i64 %11, ptr %4, align 8, !tbaa !11
  br label %38

12:                                               ; preds = %1
  call void @llvm.lifetime.start.p0(i64 56, ptr %5) #9
  %13 = load ptr, ptr %3, align 8, !tbaa !4
  call void @luaL_checktype(ptr noundef %13, i32 noundef 1, i32 noundef 5)
  %14 = load ptr, ptr %3, align 8, !tbaa !4
  call void @lua_settop(ptr noundef %14, i32 noundef 1)
  %15 = load ptr, ptr %3, align 8, !tbaa !4
  %16 = call i32 @getfield(ptr noundef %15, ptr noundef @.str.15, i32 noundef -1, i32 noundef 1900)
  %17 = getelementptr inbounds nuw %struct.tm, ptr %5, i32 0, i32 5
  store i32 %16, ptr %17, align 4, !tbaa !22
  %18 = load ptr, ptr %3, align 8, !tbaa !4
  %19 = call i32 @getfield(ptr noundef %18, ptr noundef @.str.16, i32 noundef -1, i32 noundef 1)
  %20 = getelementptr inbounds nuw %struct.tm, ptr %5, i32 0, i32 4
  store i32 %19, ptr %20, align 8, !tbaa !24
  %21 = load ptr, ptr %3, align 8, !tbaa !4
  %22 = call i32 @getfield(ptr noundef %21, ptr noundef @.str.17, i32 noundef -1, i32 noundef 0)
  %23 = getelementptr inbounds nuw %struct.tm, ptr %5, i32 0, i32 3
  store i32 %22, ptr %23, align 4, !tbaa !25
  %24 = load ptr, ptr %3, align 8, !tbaa !4
  %25 = call i32 @getfield(ptr noundef %24, ptr noundef @.str.18, i32 noundef 12, i32 noundef 0)
  %26 = getelementptr inbounds nuw %struct.tm, ptr %5, i32 0, i32 2
  store i32 %25, ptr %26, align 8, !tbaa !26
  %27 = load ptr, ptr %3, align 8, !tbaa !4
  %28 = call i32 @getfield(ptr noundef %27, ptr noundef @.str.19, i32 noundef 0, i32 noundef 0)
  %29 = getelementptr inbounds nuw %struct.tm, ptr %5, i32 0, i32 1
  store i32 %28, ptr %29, align 4, !tbaa !27
  %30 = load ptr, ptr %3, align 8, !tbaa !4
  %31 = call i32 @getfield(ptr noundef %30, ptr noundef @.str.20, i32 noundef 0, i32 noundef 0)
  %32 = getelementptr inbounds nuw %struct.tm, ptr %5, i32 0, i32 0
  store i32 %31, ptr %32, align 8, !tbaa !28
  %33 = load ptr, ptr %3, align 8, !tbaa !4
  %34 = call i32 @getboolfield(ptr noundef %33, ptr noundef @.str.23)
  %35 = getelementptr inbounds nuw %struct.tm, ptr %5, i32 0, i32 8
  store i32 %34, ptr %35, align 8, !tbaa !29
  %36 = call i64 @mktime(ptr noundef %5) #9
  store i64 %36, ptr %4, align 8, !tbaa !11
  %37 = load ptr, ptr %3, align 8, !tbaa !4
  call void @setallfields(ptr noundef %37, ptr noundef %5)
  call void @llvm.lifetime.end.p0(i64 56, ptr %5) #9
  br label %38

38:                                               ; preds = %12, %10
  %39 = load i64, ptr %4, align 8, !tbaa !11
  %40 = load i64, ptr %4, align 8, !tbaa !11
  %41 = icmp ne i64 %39, %40
  br i1 %41, label %45, label %42

42:                                               ; preds = %38
  %43 = load i64, ptr %4, align 8, !tbaa !11
  %44 = icmp eq i64 %43, -1
  br i1 %44, label %45, label %48

45:                                               ; preds = %42, %38
  %46 = load ptr, ptr %3, align 8, !tbaa !4
  %47 = call i32 (ptr, ptr, ...) @luaL_error(ptr noundef %46, ptr noundef @.str.31)
  store i32 %47, ptr %2, align 4
  store i32 1, ptr %6, align 4
  br label %51

48:                                               ; preds = %42
  %49 = load ptr, ptr %3, align 8, !tbaa !4
  %50 = load i64, ptr %4, align 8, !tbaa !11
  call void @lua_pushinteger(ptr noundef %49, i64 noundef %50)
  store i32 1, ptr %2, align 4
  store i32 1, ptr %6, align 4
  br label %51

51:                                               ; preds = %48, %45
  call void @llvm.lifetime.end.p0(i64 8, ptr %4) #9
  %52 = load i32, ptr %2, align 4
  ret i32 %52
}