; Function Attrs: nounwind uwtable
define internal i32 @os_time(ptr noundef %0) #0 {
  %2 = alloca i32, align 4
  %3 = alloca i32, align 4
  %4 = alloca i32, align 4
  %5 = alloca %struct.tm, align 8
  %6 = tail call i32 @lua_type(ptr noundef %0, i32 noundef 1) #12
  %7 = icmp slt i32 %6, 1
  br i1 %7, label %8, label %10

8:                                                ; preds = %1
  %9 = tail call i64 @time(ptr noundef null) #12
  br label %74

10:                                               ; preds = %1
  call void @llvm.lifetime.start.p0(i64 56, ptr nonnull %5) #12
  tail call void @luaL_checktype(ptr noundef %0, i32 noundef 1, i32 noundef 5) #12
  tail call void @lua_settop(ptr noundef %0, i32 noundef 1) #12
  %11 = tail call fastcc i32 @getfield(ptr noundef %0, ptr noundef nonnull @.str.15, i32 noundef -1, i32 noundef 1900)
  %12 = getelementptr inbounds nuw i8, ptr %5, i64 20
  store i32 %11, ptr %12, align 4, !tbaa !18
  %13 = tail call fastcc i32 @getfield(ptr noundef %0, ptr noundef nonnull @.str.16, i32 noundef -1, i32 noundef 1)
  %14 = getelementptr inbounds nuw i8, ptr %5, i64 16
  store i32 %13, ptr %14, align 8, !tbaa !20
  %15 = tail call fastcc i32 @getfield(ptr noundef %0, ptr noundef nonnull @.str.17, i32 noundef -1, i32 noundef 0)
  %16 = getelementptr inbounds nuw i8, ptr %5, i64 12
  store i32 %15, ptr %16, align 4, !tbaa !21
  call void @llvm.lifetime.start.p0(i64 4, ptr nonnull %4) #12
  %17 = tail call i32 @lua_getfield(ptr noundef %0, i32 noundef -1, ptr noundef nonnull @.str.18) #12
  %18 = call i64 @lua_tointegerx(ptr noundef %0, i32 noundef -1, ptr noundef nonnull %4) #12
  %19 = load i32, ptr %4, align 4, !tbaa !16
  %.not.i = icmp eq i32 %19, 0
  br i1 %.not.i, label %20, label %23

20:                                               ; preds = %10
  %.not24.i = icmp eq i32 %17, 0
  br i1 %.not24.i, label %32, label %21, !prof !22

21:                                               ; preds = %20
  %22 = call i32 (ptr, ptr, ...) @luaL_error(ptr noundef %0, ptr noundef nonnull @.str.32, ptr noundef nonnull @.str.18) #12
  br label %getfield.exit

23:                                               ; preds = %10
  %24 = icmp sgt i64 %18, -1
  br i1 %24, label %25, label %27

25:                                               ; preds = %23
  %26 = icmp samesign ult i64 %18, 2147483648
  br i1 %26, label %30, label %28

27:                                               ; preds = %23
  %.not25.i = icmp samesign ult i64 %18, -2147483648
  br i1 %.not25.i, label %28, label %30

28:                                               ; preds = %27, %25
  %29 = call i32 (ptr, ptr, ...) @luaL_error(ptr noundef %0, ptr noundef nonnull @.str.34, ptr noundef nonnull @.str.18) #12
  br label %getfield.exit

30:                                               ; preds = %27, %25
  %31 = trunc i64 %18 to i32
  br label %32

32:                                               ; preds = %20, %30
  %.0.i = phi i32 [ %31, %30 ], [ 12, %20 ]
  call void @lua_settop(ptr noundef %0, i32 noundef -2) #12
  br label %getfield.exit

getfield.exit:                                    ; preds = %21, %28, %32
  %.021.i = phi i32 [ %.0.i, %32 ], [ %29, %28 ], [ %22, %21 ]
  call void @llvm.lifetime.end.p0(i64 4, ptr nonnull %4) #12
  %33 = getelementptr inbounds nuw i8, ptr %5, i64 8
  store i32 %.021.i, ptr %33, align 8, !tbaa !23
  call void @llvm.lifetime.start.p0(i64 4, ptr nonnull %3) #12
  %34 = call i32 @lua_getfield(ptr noundef %0, i32 noundef -1, ptr noundef nonnull @.str.19) #12
  %35 = call i64 @lua_tointegerx(ptr noundef %0, i32 noundef -1, ptr noundef nonnull %3) #12
  %36 = load i32, ptr %3, align 4, !tbaa !16
  %.not.i19 = icmp eq i32 %36, 0
  br i1 %.not.i19, label %37, label %40

37:                                               ; preds = %getfield.exit
  %.not24.i23 = icmp eq i32 %34, 0
  br i1 %.not24.i23, label %49, label %38, !prof !22

38:                                               ; preds = %37
  %39 = call i32 (ptr, ptr, ...) @luaL_error(ptr noundef %0, ptr noundef nonnull @.str.32, ptr noundef nonnull @.str.19) #12
  br label %getfield.exit24

40:                                               ; preds = %getfield.exit
  %41 = icmp sgt i64 %35, -1
  br i1 %41, label %42, label %44

42:                                               ; preds = %40
  %43 = icmp samesign ult i64 %35, 2147483648
  br i1 %43, label %47, label %45

44:                                               ; preds = %40
  %.not25.i20 = icmp samesign ult i64 %35, -2147483648
  br i1 %.not25.i20, label %45, label %47

45:                                               ; preds = %44, %42
  %46 = call i32 (ptr, ptr, ...) @luaL_error(ptr noundef %0, ptr noundef nonnull @.str.34, ptr noundef nonnull @.str.19) #12
  br label %getfield.exit24

47:                                               ; preds = %44, %42
  %48 = trunc i64 %35 to i32
  br label %49

49:                                               ; preds = %37, %47
  %.0.i21 = phi i32 [ %48, %47 ], [ 0, %37 ]
  call void @lua_settop(ptr noundef %0, i32 noundef -2) #12
  br label %getfield.exit24

getfield.exit24:                                  ; preds = %38, %45, %49
  %.021.i22 = phi i32 [ %.0.i21, %49 ], [ %46, %45 ], [ %39, %38 ]
  call void @llvm.lifetime.end.p0(i64 4, ptr nonnull %3) #12
  %50 = getelementptr inbounds nuw i8, ptr %5, i64 4
  store i32 %.021.i22, ptr %50, align 4, !tbaa !24
  call void @llvm.lifetime.start.p0(i64 4, ptr nonnull %2) #12
  %51 = call i32 @lua_getfield(ptr noundef %0, i32 noundef -1, ptr noundef nonnull @.str.20) #12
  %52 = call i64 @lua_tointegerx(ptr noundef %0, i32 noundef -1, ptr noundef nonnull %2) #12
  %53 = load i32, ptr %2, align 4, !tbaa !16
  %.not.i25 = icmp eq i32 %53, 0
  br i1 %.not.i25, label %54, label %57

54:                                               ; preds = %getfield.exit24
  %.not24.i29 = icmp eq i32 %51, 0
  br i1 %.not24.i29, label %66, label %55, !prof !22

55:                                               ; preds = %54
  %56 = call i32 (ptr, ptr, ...) @luaL_error(ptr noundef %0, ptr noundef nonnull @.str.32, ptr noundef nonnull @.str.20) #12
  br label %getfield.exit30

57:                                               ; preds = %getfield.exit24
  %58 = icmp sgt i64 %52, -1
  br i1 %58, label %59, label %61

59:                                               ; preds = %57
  %60 = icmp samesign ult i64 %52, 2147483648
  br i1 %60, label %64, label %62

61:                                               ; preds = %57
  %.not25.i26 = icmp samesign ult i64 %52, -2147483648
  br i1 %.not25.i26, label %62, label %64

62:                                               ; preds = %61, %59
  %63 = call i32 (ptr, ptr, ...) @luaL_error(ptr noundef %0, ptr noundef nonnull @.str.34, ptr noundef nonnull @.str.20) #12
  br label %getfield.exit30

64:                                               ; preds = %61, %59
  %65 = trunc i64 %52 to i32
  br label %66

66:                                               ; preds = %54, %64
  %.0.i27 = phi i32 [ %65, %64 ], [ 0, %54 ]
  call void @lua_settop(ptr noundef %0, i32 noundef -2) #12
  br label %getfield.exit30

getfield.exit30:                                  ; preds = %55, %62, %66
  %.021.i28 = phi i32 [ %.0.i27, %66 ], [ %63, %62 ], [ %56, %55 ]
  call void @llvm.lifetime.end.p0(i64 4, ptr nonnull %2) #12
  store i32 %.021.i28, ptr %5, align 8, !tbaa !25
  %67 = call i32 @lua_getfield(ptr noundef %0, i32 noundef -1, ptr noundef nonnull @.str.23) #12
  %68 = icmp eq i32 %67, 0
  br i1 %68, label %getboolfield.exit, label %69

69:                                               ; preds = %getfield.exit30
  %70 = call i32 @lua_toboolean(ptr noundef %0, i32 noundef -1) #12
  br label %getboolfield.exit

getboolfield.exit:                                ; preds = %getfield.exit30, %69
  %71 = phi i32 [ %70, %69 ], [ -1, %getfield.exit30 ]
  call void @lua_settop(ptr noundef %0, i32 noundef -2) #12
  %72 = getelementptr inbounds nuw i8, ptr %5, i64 32
  store i32 %71, ptr %72, align 8, !tbaa !26
  %73 = call i64 @mktime(ptr noundef nonnull %5) #12
  call fastcc void @setallfields(ptr noundef %0, ptr noundef %5)
  call void @llvm.lifetime.end.p0(i64 56, ptr nonnull %5) #12
  br label %74

74:                                               ; preds = %getboolfield.exit, %8
  %.0 = phi i64 [ %9, %8 ], [ %73, %getboolfield.exit ]
  %75 = icmp eq i64 %.0, -1
  br i1 %75, label %76, label %78

76:                                               ; preds = %74
  %77 = call i32 (ptr, ptr, ...) @luaL_error(ptr noundef %0, ptr noundef nonnull @.str.31) #12
  br label %79

78:                                               ; preds = %74
  call void @lua_pushinteger(ptr noundef %0, i64 noundef %.0) #12
  br label %79

79:                                               ; preds = %78, %76
  %.018 = phi i32 [ %77, %76 ], [ 1, %78 ]
  ret i32 %.018
}